
/home/dolanwm/Github/drcctlib/appsamples/build/sample1.o:     file format elf64-x86-64


Disassembly of section .init:

0000000000000750 <_init>:
 750:	48 83 ec 08          	sub    $0x8,%rsp
 754:	48 8b 05 95 18 20 00 	mov    0x201895(%rip),%rax        # 201ff0 <__gmon_start__>
 75b:	48 85 c0             	test   %rax,%rax
 75e:	74 02                	je     762 <_init+0x12>
 760:	ff d0                	callq  *%rax
 762:	48 83 c4 08          	add    $0x8,%rsp
 766:	c3                   	retq   

Disassembly of section .plt:

0000000000000770 <.plt>:
 770:	ff 35 22 18 20 00    	pushq  0x201822(%rip)        # 201f98 <_GLOBAL_OFFSET_TABLE_+0x8>
 776:	ff 25 24 18 20 00    	jmpq   *0x201824(%rip)        # 201fa0 <_GLOBAL_OFFSET_TABLE_+0x10>
 77c:	0f 1f 40 00          	nopl   0x0(%rax)

0000000000000780 <__cxa_begin_catch@plt>:
 780:	ff 25 22 18 20 00    	jmpq   *0x201822(%rip)        # 201fa8 <__cxa_begin_catch@CXXABI_1.3>
 786:	68 00 00 00 00       	pushq  $0x0
 78b:	e9 e0 ff ff ff       	jmpq   770 <.plt>

0000000000000790 <__cxa_allocate_exception@plt>:
 790:	ff 25 1a 18 20 00    	jmpq   *0x20181a(%rip)        # 201fb0 <__cxa_allocate_exception@CXXABI_1.3>
 796:	68 01 00 00 00       	pushq  $0x1
 79b:	e9 d0 ff ff ff       	jmpq   770 <.plt>

00000000000007a0 <malloc@plt>:
 7a0:	ff 25 12 18 20 00    	jmpq   *0x201812(%rip)        # 201fb8 <malloc@GLIBC_2.2.5>
 7a6:	68 02 00 00 00       	pushq  $0x2
 7ab:	e9 c0 ff ff ff       	jmpq   770 <.plt>

00000000000007b0 <__cxa_end_catch@plt>:
 7b0:	ff 25 0a 18 20 00    	jmpq   *0x20180a(%rip)        # 201fc0 <__cxa_end_catch@CXXABI_1.3>
 7b6:	68 03 00 00 00       	pushq  $0x3
 7bb:	e9 b0 ff ff ff       	jmpq   770 <.plt>

00000000000007c0 <__cxa_throw@plt>:
 7c0:	ff 25 02 18 20 00    	jmpq   *0x201802(%rip)        # 201fc8 <__cxa_throw@CXXABI_1.3>
 7c6:	68 04 00 00 00       	pushq  $0x4
 7cb:	e9 a0 ff ff ff       	jmpq   770 <.plt>

00000000000007d0 <_Unwind_Resume@plt>:
 7d0:	ff 25 fa 17 20 00    	jmpq   *0x2017fa(%rip)        # 201fd0 <_Unwind_Resume@GCC_3.0>
 7d6:	68 05 00 00 00       	pushq  $0x5
 7db:	e9 90 ff ff ff       	jmpq   770 <.plt>

Disassembly of section .plt.got:

00000000000007e0 <__cxa_finalize@plt>:
 7e0:	ff 25 f2 17 20 00    	jmpq   *0x2017f2(%rip)        # 201fd8 <__cxa_finalize@GLIBC_2.2.5>
 7e6:	66 90                	xchg   %ax,%ax

Disassembly of section .text:

00000000000007f0 <_start>:
 7f0:	31 ed                	xor    %ebp,%ebp
 7f2:	49 89 d1             	mov    %rdx,%r9
 7f5:	5e                   	pop    %rsi
 7f6:	48 89 e2             	mov    %rsp,%rdx
 7f9:	48 83 e4 f0          	and    $0xfffffffffffffff0,%rsp
 7fd:	50                   	push   %rax
 7fe:	54                   	push   %rsp
 7ff:	4c 8d 05 ba 02 00 00 	lea    0x2ba(%rip),%r8        # ac0 <__libc_csu_fini>
 806:	48 8d 0d 43 02 00 00 	lea    0x243(%rip),%rcx        # a50 <__libc_csu_init>
 80d:	48 8d 3d ee 01 00 00 	lea    0x1ee(%rip),%rdi        # a02 <main>
 814:	ff 15 ce 17 20 00    	callq  *0x2017ce(%rip)        # 201fe8 <__libc_start_main@GLIBC_2.2.5>
 81a:	f4                   	hlt    
 81b:	0f 1f 44 00 00       	nopl   0x0(%rax,%rax,1)

0000000000000820 <deregister_tm_clones>:
 820:	48 8d 3d f9 17 20 00 	lea    0x2017f9(%rip),%rdi        # 202020 <__TMC_END__>
 827:	55                   	push   %rbp
 828:	48 8d 05 f1 17 20 00 	lea    0x2017f1(%rip),%rax        # 202020 <__TMC_END__>
 82f:	48 39 f8             	cmp    %rdi,%rax
 832:	48 89 e5             	mov    %rsp,%rbp
 835:	74 19                	je     850 <deregister_tm_clones+0x30>
 837:	48 8b 05 a2 17 20 00 	mov    0x2017a2(%rip),%rax        # 201fe0 <_ITM_deregisterTMCloneTable>
 83e:	48 85 c0             	test   %rax,%rax
 841:	74 0d                	je     850 <deregister_tm_clones+0x30>
 843:	5d                   	pop    %rbp
 844:	ff e0                	jmpq   *%rax
 846:	66 2e 0f 1f 84 00 00 	nopw   %cs:0x0(%rax,%rax,1)
 84d:	00 00 00 
 850:	5d                   	pop    %rbp
 851:	c3                   	retq   
 852:	0f 1f 40 00          	nopl   0x0(%rax)
 856:	66 2e 0f 1f 84 00 00 	nopw   %cs:0x0(%rax,%rax,1)
 85d:	00 00 00 

0000000000000860 <register_tm_clones>:
 860:	48 8d 3d b9 17 20 00 	lea    0x2017b9(%rip),%rdi        # 202020 <__TMC_END__>
 867:	48 8d 35 b2 17 20 00 	lea    0x2017b2(%rip),%rsi        # 202020 <__TMC_END__>
 86e:	55                   	push   %rbp
 86f:	48 29 fe             	sub    %rdi,%rsi
 872:	48 89 e5             	mov    %rsp,%rbp
 875:	48 c1 fe 03          	sar    $0x3,%rsi
 879:	48 89 f0             	mov    %rsi,%rax
 87c:	48 c1 e8 3f          	shr    $0x3f,%rax
 880:	48 01 c6             	add    %rax,%rsi
 883:	48 d1 fe             	sar    %rsi
 886:	74 18                	je     8a0 <register_tm_clones+0x40>
 888:	48 8b 05 69 17 20 00 	mov    0x201769(%rip),%rax        # 201ff8 <_ITM_registerTMCloneTable>
 88f:	48 85 c0             	test   %rax,%rax
 892:	74 0c                	je     8a0 <register_tm_clones+0x40>
 894:	5d                   	pop    %rbp
 895:	ff e0                	jmpq   *%rax
 897:	66 0f 1f 84 00 00 00 	nopw   0x0(%rax,%rax,1)
 89e:	00 00 
 8a0:	5d                   	pop    %rbp
 8a1:	c3                   	retq   
 8a2:	0f 1f 40 00          	nopl   0x0(%rax)
 8a6:	66 2e 0f 1f 84 00 00 	nopw   %cs:0x0(%rax,%rax,1)
 8ad:	00 00 00 

00000000000008b0 <__do_global_dtors_aux>:
 8b0:	80 3d 69 17 20 00 00 	cmpb   $0x0,0x201769(%rip)        # 202020 <__TMC_END__>
 8b7:	75 2f                	jne    8e8 <__do_global_dtors_aux+0x38>
 8b9:	48 83 3d 17 17 20 00 	cmpq   $0x0,0x201717(%rip)        # 201fd8 <__cxa_finalize@GLIBC_2.2.5>
 8c0:	00 
 8c1:	55                   	push   %rbp
 8c2:	48 89 e5             	mov    %rsp,%rbp
 8c5:	74 0c                	je     8d3 <__do_global_dtors_aux+0x23>
 8c7:	48 8b 3d 3a 17 20 00 	mov    0x20173a(%rip),%rdi        # 202008 <__dso_handle>
 8ce:	e8 0d ff ff ff       	callq  7e0 <__cxa_finalize@plt>
 8d3:	e8 48 ff ff ff       	callq  820 <deregister_tm_clones>
 8d8:	c6 05 41 17 20 00 01 	movb   $0x1,0x201741(%rip)        # 202020 <__TMC_END__>
 8df:	5d                   	pop    %rbp
 8e0:	c3                   	retq   
 8e1:	0f 1f 80 00 00 00 00 	nopl   0x0(%rax)
 8e8:	f3 c3                	repz retq 
 8ea:	66 0f 1f 44 00 00    	nopw   0x0(%rax,%rax,1)

00000000000008f0 <frame_dummy>:
 8f0:	55                   	push   %rbp
 8f1:	48 89 e5             	mov    %rsp,%rbp
 8f4:	5d                   	pop    %rbp
 8f5:	e9 66 ff ff ff       	jmpq   860 <register_tm_clones>

00000000000008fa <_Z6Createv>:
 8fa:	55                   	push   %rbp
 8fb:	48 89 e5             	mov    %rsp,%rbp
 8fe:	bf 28 00 00 00       	mov    $0x28,%edi
 903:	e8 98 fe ff ff       	callq  7a0 <malloc@plt>
 908:	5d                   	pop    %rbp
 909:	c3                   	retq   

000000000000090a <_Z13ExceptionTestv>:
 90a:	55                   	push   %rbp
 90b:	48 89 e5             	mov    %rsp,%rbp
 90e:	8b 05 10 17 20 00    	mov    0x201710(%rip),%eax        # 202024 <global_int>
 914:	83 c0 01             	add    $0x1,%eax
 917:	89 05 07 17 20 00    	mov    %eax,0x201707(%rip)        # 202024 <global_int>
 91d:	8b 05 01 17 20 00    	mov    0x201701(%rip),%eax        # 202024 <global_int>
 923:	83 f8 06             	cmp    $0x6,%eax
 926:	7e 28                	jle    950 <_Z13ExceptionTestv+0x46>
 928:	bf 08 00 00 00       	mov    $0x8,%edi
 92d:	e8 5e fe ff ff       	callq  790 <__cxa_allocate_exception@plt>
 932:	48 8d 15 9b 01 00 00 	lea    0x19b(%rip),%rdx        # ad4 <_IO_stdin_used+0x4>
 939:	48 89 10             	mov    %rdx,(%rax)
 93c:	ba 00 00 00 00       	mov    $0x0,%edx
 941:	48 8d 35 18 14 20 00 	lea    0x201418(%rip),%rsi        # 201d60 <_ZTIPKc@@CXXABI_1.3>
 948:	48 89 c7             	mov    %rax,%rdi
 94b:	e8 70 fe ff ff       	callq  7c0 <__cxa_throw@plt>
 950:	90                   	nop
 951:	5d                   	pop    %rbp
 952:	c3                   	retq   

0000000000000953 <_Z10DataCreatev>:
 953:	55                   	push   %rbp
 954:	48 89 e5             	mov    %rsp,%rbp
 957:	48 83 ec 10          	sub    $0x10,%rsp
 95b:	e8 9a ff ff ff       	callq  8fa <_Z6Createv>
 960:	48 89 45 f8          	mov    %rax,-0x8(%rbp)
 964:	48 8b 45 f8          	mov    -0x8(%rbp),%rax
 968:	48 8d 50 14          	lea    0x14(%rax),%rdx
 96c:	8b 05 b2 16 20 00    	mov    0x2016b2(%rip),%eax        # 202024 <global_int>
 972:	89 02                	mov    %eax,(%rdx)
 974:	e8 91 ff ff ff       	callq  90a <_Z13ExceptionTestv>
 979:	90                   	nop
 97a:	c9                   	leaveq 
 97b:	c3                   	retq   

000000000000097c <_Z7SubFun1v>:
 97c:	55                   	push   %rbp
 97d:	48 89 e5             	mov    %rsp,%rbp
 980:	48 83 ec 10          	sub    $0x10,%rsp
 984:	e8 ca ff ff ff       	callq  953 <_Z10DataCreatev>
 989:	eb 1f                	jmp    9aa <_Z7SubFun1v+0x2e>
 98b:	48 83 fa 01          	cmp    $0x1,%rdx
 98f:	74 08                	je     999 <_Z7SubFun1v+0x1d>
 991:	48 89 c7             	mov    %rax,%rdi
 994:	e8 37 fe ff ff       	callq  7d0 <_Unwind_Resume@plt>
 999:	48 89 c7             	mov    %rax,%rdi
 99c:	e8 df fd ff ff       	callq  780 <__cxa_begin_catch@plt>
 9a1:	48 89 45 f8          	mov    %rax,-0x8(%rbp)
 9a5:	e8 06 fe ff ff       	callq  7b0 <__cxa_end_catch@plt>
 9aa:	90                   	nop
 9ab:	c9                   	leaveq 
 9ac:	c3                   	retq   

00000000000009ad <_Z7SubFun2v>:
 9ad:	55                   	push   %rbp
 9ae:	48 89 e5             	mov    %rsp,%rbp
 9b1:	e8 9d ff ff ff       	callq  953 <_Z10DataCreatev>
 9b6:	90                   	nop
 9b7:	5d                   	pop    %rbp
 9b8:	c3                   	retq   

00000000000009b9 <_Z4Fun1v>:
 9b9:	55                   	push   %rbp
 9ba:	48 89 e5             	mov    %rsp,%rbp
 9bd:	e8 ba ff ff ff       	callq  97c <_Z7SubFun1v>
 9c2:	90                   	nop
 9c3:	5d                   	pop    %rbp
 9c4:	c3                   	retq   

00000000000009c5 <_Z4Fun2v>:
 9c5:	55                   	push   %rbp
 9c6:	48 89 e5             	mov    %rsp,%rbp
 9c9:	48 83 ec 10          	sub    $0x10,%rsp
 9cd:	e8 db ff ff ff       	callq  9ad <_Z7SubFun2v>
 9d2:	eb 1f                	jmp    9f3 <_Z4Fun2v+0x2e>
 9d4:	48 83 fa 01          	cmp    $0x1,%rdx
 9d8:	74 08                	je     9e2 <_Z4Fun2v+0x1d>
 9da:	48 89 c7             	mov    %rax,%rdi
 9dd:	e8 ee fd ff ff       	callq  7d0 <_Unwind_Resume@plt>
 9e2:	48 89 c7             	mov    %rax,%rdi
 9e5:	e8 96 fd ff ff       	callq  780 <__cxa_begin_catch@plt>
 9ea:	48 89 45 f8          	mov    %rax,-0x8(%rbp)
 9ee:	e8 bd fd ff ff       	callq  7b0 <__cxa_end_catch@plt>
 9f3:	90                   	nop
 9f4:	c9                   	leaveq 
 9f5:	c3                   	retq   

00000000000009f6 <_Z4Fun3v>:
 9f6:	55                   	push   %rbp
 9f7:	48 89 e5             	mov    %rsp,%rbp
 9fa:	e8 ae ff ff ff       	callq  9ad <_Z7SubFun2v>
 9ff:	90                   	nop
 a00:	5d                   	pop    %rbp
 a01:	c3                   	retq   

0000000000000a02 <main>:
 a02:	55                   	push   %rbp
 a03:	48 89 e5             	mov    %rsp,%rbp
 a06:	48 83 ec 10          	sub    $0x10,%rsp
 a0a:	e8 aa ff ff ff       	callq  9b9 <_Z4Fun1v>
 a0f:	e8 b1 ff ff ff       	callq  9c5 <_Z4Fun2v>
 a14:	e8 dd ff ff ff       	callq  9f6 <_Z4Fun3v>
 a19:	b8 00 00 00 00       	mov    $0x0,%eax
 a1e:	eb 21                	jmp    a41 <main+0x3f>
 a20:	48 83 fa 01          	cmp    $0x1,%rdx
 a24:	74 08                	je     a2e <main+0x2c>
 a26:	48 89 c7             	mov    %rax,%rdi
 a29:	e8 a2 fd ff ff       	callq  7d0 <_Unwind_Resume@plt>
 a2e:	48 89 c7             	mov    %rax,%rdi
 a31:	e8 4a fd ff ff       	callq  780 <__cxa_begin_catch@plt>
 a36:	48 89 45 f8          	mov    %rax,-0x8(%rbp)
 a3a:	e8 71 fd ff ff       	callq  7b0 <__cxa_end_catch@plt>
 a3f:	eb d8                	jmp    a19 <main+0x17>
 a41:	c9                   	leaveq 
 a42:	c3                   	retq   
 a43:	66 2e 0f 1f 84 00 00 	nopw   %cs:0x0(%rax,%rax,1)
 a4a:	00 00 00 
 a4d:	0f 1f 00             	nopl   (%rax)

0000000000000a50 <__libc_csu_init>:
 a50:	41 57                	push   %r15
 a52:	41 56                	push   %r14
 a54:	49 89 d7             	mov    %rdx,%r15
 a57:	41 55                	push   %r13
 a59:	41 54                	push   %r12
 a5b:	4c 8d 25 ee 12 20 00 	lea    0x2012ee(%rip),%r12        # 201d50 <__frame_dummy_init_array_entry>
 a62:	55                   	push   %rbp
 a63:	48 8d 2d ee 12 20 00 	lea    0x2012ee(%rip),%rbp        # 201d58 <__init_array_end>
 a6a:	53                   	push   %rbx
 a6b:	41 89 fd             	mov    %edi,%r13d
 a6e:	49 89 f6             	mov    %rsi,%r14
 a71:	4c 29 e5             	sub    %r12,%rbp
 a74:	48 83 ec 08          	sub    $0x8,%rsp
 a78:	48 c1 fd 03          	sar    $0x3,%rbp
 a7c:	e8 cf fc ff ff       	callq  750 <_init>
 a81:	48 85 ed             	test   %rbp,%rbp
 a84:	74 20                	je     aa6 <__libc_csu_init+0x56>
 a86:	31 db                	xor    %ebx,%ebx
 a88:	0f 1f 84 00 00 00 00 	nopl   0x0(%rax,%rax,1)
 a8f:	00 
 a90:	4c 89 fa             	mov    %r15,%rdx
 a93:	4c 89 f6             	mov    %r14,%rsi
 a96:	44 89 ef             	mov    %r13d,%edi
 a99:	41 ff 14 dc          	callq  *(%r12,%rbx,8)
 a9d:	48 83 c3 01          	add    $0x1,%rbx
 aa1:	48 39 dd             	cmp    %rbx,%rbp
 aa4:	75 ea                	jne    a90 <__libc_csu_init+0x40>
 aa6:	48 83 c4 08          	add    $0x8,%rsp
 aaa:	5b                   	pop    %rbx
 aab:	5d                   	pop    %rbp
 aac:	41 5c                	pop    %r12
 aae:	41 5d                	pop    %r13
 ab0:	41 5e                	pop    %r14
 ab2:	41 5f                	pop    %r15
 ab4:	c3                   	retq   
 ab5:	90                   	nop
 ab6:	66 2e 0f 1f 84 00 00 	nopw   %cs:0x0(%rax,%rax,1)
 abd:	00 00 00 

0000000000000ac0 <__libc_csu_fini>:
 ac0:	f3 c3                	repz retq 

Disassembly of section .fini:

0000000000000ac4 <_fini>:
 ac4:	48 83 ec 08          	sub    $0x8,%rsp
 ac8:	48 83 c4 08          	add    $0x8,%rsp
 acc:	c3                   	retq   
